target datalayout = "e-m:e-p270:32:32-p271:32:32-p272:64:64-i64:64-i128:128-f80:128-n8:16:32:64-S128"
target triple = "x86_64-pc-linux-gnu"

%struct.file_stream = type { i32, ptr, i8, ptr, ptr, i64 }
%struct.stat = type { i64, i64, i64, i32, i32, i32, i32, i64, i64, i64, i64, %struct.timespec, %struct.timespec, %struct.timespec, [3 x i64] }
%struct.timespec = type { i64, i64 }

@.str.20 = private unnamed_addr constant [28 x i8] c"%s: unable to preserve mode\00", align 1
@.str.21 = private unnamed_addr constant [39 x i8] c"%s: unable to preserve owner and group\00", align 1
@.str.22 = private unnamed_addr constant [34 x i8] c"%s: unable to preserve timestamps\00", align 1

; Function Attrs: nounwind uwtable
define internal void @restore_timestamps(ptr noundef %0, ptr noundef %1, ptr noundef %2) #0 {
  %4 = alloca ptr, align 8
  %5 = alloca ptr, align 8
  %6 = alloca ptr, align 8
  %7 = alloca i32, align 4
  %8 = alloca [2 x %struct.timespec], align 16
  store ptr %0, ptr %4, align 8, !tbaa !42
  store ptr %1, ptr %5, align 8, !tbaa !22
  store ptr %2, ptr %6, align 8, !tbaa !44
  call void @llvm.lifetime.start.p0(i64 4, ptr %7) #9
  call void @llvm.lifetime.start.p0(i64 32, ptr %8) #9
  %9 = load ptr, ptr %6, align 8, !tbaa !44
  %10 = getelementptr inbounds nuw %struct.stat, ptr %9, i32 0, i32 11
  call void @llvm.memcpy.p0.p0.i64(ptr align 16 %8, ptr align 8 %10, i64 16, i1 false), !tbaa.struct !55
  %11 = getelementptr inbounds %struct.timespec, ptr %8, i64 1
  %12 = load ptr, ptr %6, align 8, !tbaa !44
  %13 = getelementptr inbounds nuw %struct.stat, ptr %12, i32 0, i32 12
  call void @llvm.memcpy.p0.p0.i64(ptr align 16 %11, ptr align 8 %13, i64 16, i1 false), !tbaa.struct !55
  %14 = load ptr, ptr %4, align 8, !tbaa !42
  %15 = getelementptr inbounds nuw %struct.file_stream, ptr %14, i32 0, i32 0
  %16 = load i32, ptr %15, align 8, !tbaa !35
  %17 = getelementptr inbounds [2 x %struct.timespec], ptr %8, i64 0, i64 0
  %18 = call i32 @futimens(i32 noundef %16, ptr noundef %17) #9
  store i32 %18, ptr %7, align 4, !tbaa !5
  %19 = load i32, ptr %7, align 4, !tbaa !5
  %20 = icmp ne i32 %19, 0
  br i1 %20, label %21, label %25

21:                                               ; preds = %3
  %22 = load ptr, ptr %4, align 8, !tbaa !42
  %23 = getelementptr inbounds nuw %struct.file_stream, ptr %22, i32 0, i32 1
  %24 = load ptr, ptr %23, align 8, !tbaa !46
  call void (ptr, ...) @msg_errno(ptr noundef @.str.22, ptr noundef %24)
  br label %25

25:                                               ; preds = %21, %3
  call void @llvm.lifetime.end.p0(i64 32, ptr %8) #9
  call void @llvm.lifetime.end.p0(i64 4, ptr %7) #9
  ret void
}

; Function Attrs: nounwind uwtable
define internal void @restore_owner_and_group(ptr noundef %0, ptr noundef %1) #0 {
  %3 = alloca ptr, align 8
  %4 = alloca ptr, align 8
  store ptr %0, ptr %3, align 8, !tbaa !42
  store ptr %1, ptr %4, align 8, !tbaa !44
  %5 = load ptr, ptr %3, align 8, !tbaa !42
  %6 = getelementptr inbounds nuw %struct.file_stream, ptr %5, i32 0, i32 0
  %7 = load i32, ptr %6, align 8, !tbaa !35
  %8 = load ptr, ptr %4, align 8, !tbaa !44
  %9 = getelementptr inbounds nuw %struct.stat, ptr %8, i32 0, i32 4
  %10 = load i32, ptr %9, align 4, !tbaa !53
  %11 = load ptr, ptr %4, align 8, !tbaa !44
  %12 = getelementptr inbounds nuw %struct.stat, ptr %11, i32 0, i32 5
  %13 = load i32, ptr %12, align 8, !tbaa !54
  %14 = call i32 @fchown(i32 noundef %7, i32 noundef %10, i32 noundef %13) #9
  %15 = icmp ne i32 %14, 0
  br i1 %15, label %16, label %20

16:                                               ; preds = %2
  %17 = load ptr, ptr %3, align 8, !tbaa !42
  %18 = getelementptr inbounds nuw %struct.file_stream, ptr %17, i32 0, i32 1
  %19 = load ptr, ptr %18, align 8, !tbaa !46
  call void (ptr, ...) @msg_errno(ptr noundef @.str.21, ptr noundef %19)
  br label %20

20:                                               ; preds = %16, %2
  ret void
}

; Function Attrs: nounwind uwtable
define internal void @restore_mode(ptr noundef %0, ptr noundef %1) #0 {
  %3 = alloca ptr, align 8
  %4 = alloca ptr, align 8
  store ptr %0, ptr %3, align 8, !tbaa !42
  store ptr %1, ptr %4, align 8, !tbaa !44
  %5 = load ptr, ptr %3, align 8, !tbaa !42
  %6 = getelementptr inbounds nuw %struct.file_stream, ptr %5, i32 0, i32 0
  %7 = load i32, ptr %6, align 8, !tbaa !35
  %8 = load ptr, ptr %4, align 8, !tbaa !44
  %9 = getelementptr inbounds nuw %struct.stat, ptr %8, i32 0, i32 3
  %10 = load i32, ptr %9, align 8, !tbaa !47
  %11 = call i32 @fchmod(i32 noundef %7, i32 noundef %10) #9
  %12 = icmp ne i32 %11, 0
  br i1 %12, label %13, label %17

13:                                               ; preds = %2
  %14 = load ptr, ptr %3, align 8, !tbaa !42
  %15 = getelementptr inbounds nuw %struct.file_stream, ptr %14, i32 0, i32 1
  %16 = load ptr, ptr %15, align 8, !tbaa !46
  call void (ptr, ...) @msg_errno(ptr noundef @.str.20, ptr noundef %16)
  br label %17

17:                                               ; preds = %13, %2
  ret void
}

; Function Attrs: nounwind uwtable
define internal void @restore_metadata(ptr noundef %0, ptr noundef %1, ptr noundef %2) #0 {
  %4 = alloca ptr, align 8
  %5 = alloca ptr, align 8
  %6 = alloca ptr, align 8
  store ptr %0, ptr %4, align 8, !tbaa !42
  store ptr %1, ptr %5, align 8, !tbaa !22
  store ptr %2, ptr %6, align 8, !tbaa !44
  %7 = load ptr, ptr %4, align 8, !tbaa !42
  %8 = load ptr, ptr %6, align 8, !tbaa !44
  call void @restore_mode(ptr noundef %7, ptr noundef %8)
  %9 = load ptr, ptr %4, align 8, !tbaa !42
  %10 = load ptr, ptr %6, align 8, !tbaa !44
  call void @restore_owner_and_group(ptr noundef %9, ptr noundef %10)
  %11 = load ptr, ptr %4, align 8, !tbaa !42
  %12 = load ptr, ptr %5, align 8, !tbaa !22
  %13 = load ptr, ptr %6, align 8, !tbaa !44
  call void @restore_timestamps(ptr noundef %11, ptr noundef %12, ptr noundef %13)
  ret void
}