; Function Attrs: nounwind uwtable
define internal fastcc void @restore_metadata(ptr noundef nonnull readonly captures(none) %0, ptr noundef nonnull readonly captures(none) %1) unnamed_addr #0 {
  %3 = alloca [2 x %struct.timespec], align 16
  %4 = getelementptr i8, ptr %1, i64 24
  %.val = load i32, ptr %4, align 8, !tbaa !21
  %5 = load i32, ptr %0, align 8, !tbaa !17
  %6 = tail call i32 @fchmod(i32 noundef %5, i32 noundef %.val) #11
  %.not.i = icmp eq i32 %6, 0
  br i1 %.not.i, label %restore_mode.exit, label %7

7:                                                ; preds = %2
  %8 = getelementptr inbounds nuw i8, ptr %0, i64 8
  %9 = load ptr, ptr %8, align 8, !tbaa !20
  tail call void (ptr, ...) @msg_errno(ptr noundef nonnull @.str.20, ptr noundef %9) #11
  br label %restore_mode.exit

restore_mode.exit:                                ; preds = %2, %7
  %10 = getelementptr i8, ptr %1, i64 28
  %.val7 = load i32, ptr %10, align 4, !tbaa !36
  %11 = getelementptr i8, ptr %1, i64 32
  %.val8 = load i32, ptr %11, align 8, !tbaa !37
  %12 = load i32, ptr %0, align 8, !tbaa !17
  %13 = tail call i32 @fchown(i32 noundef %12, i32 noundef %.val7, i32 noundef %.val8) #11
  %.not.i9 = icmp eq i32 %13, 0
  br i1 %.not.i9, label %restore_owner_and_group.exit, label %14

14:                                               ; preds = %restore_mode.exit
  %15 = getelementptr inbounds nuw i8, ptr %0, i64 8
  %16 = load ptr, ptr %15, align 8, !tbaa !20
  tail call void (ptr, ...) @msg_errno(ptr noundef nonnull @.str.21, ptr noundef %16) #11
  br label %restore_owner_and_group.exit

restore_owner_and_group.exit:                     ; preds = %restore_mode.exit, %14
  call void @llvm.lifetime.start.p0(i64 32, ptr nonnull %3) #11
  %17 = getelementptr inbounds nuw i8, ptr %1, i64 72
  call void @llvm.memcpy.p0.p0.i64(ptr noundef nonnull align 16 dereferenceable(16) %3, ptr noundef nonnull readonly align 8 dereferenceable(16) %17, i64 16, i1 false), !tbaa.struct !38
  %18 = getelementptr inbounds nuw i8, ptr %3, i64 16
  %19 = getelementptr inbounds nuw i8, ptr %1, i64 88
  call void @llvm.memcpy.p0.p0.i64(ptr noundef nonnull align 16 dereferenceable(16) %18, ptr noundef nonnull readonly align 8 dereferenceable(16) %19, i64 16, i1 false), !tbaa.struct !38
  %20 = load i32, ptr %0, align 8, !tbaa !17
  %21 = call i32 @futimens(i32 noundef %20, ptr noundef nonnull %3) #11
  %.not.i10 = icmp eq i32 %21, 0
  br i1 %.not.i10, label %restore_timestamps.exit, label %22

22:                                               ; preds = %restore_owner_and_group.exit
  %23 = getelementptr inbounds nuw i8, ptr %0, i64 8
  %24 = load ptr, ptr %23, align 8, !tbaa !20
  call void (ptr, ...) @msg_errno(ptr noundef nonnull @.str.22, ptr noundef %24) #11
  br label %restore_timestamps.exit

restore_timestamps.exit:                          ; preds = %restore_owner_and_group.exit, %22
  call void @llvm.lifetime.end.p0(i64 32, ptr nonnull %3) #11
  ret void
}